target datalayout = "e-m:e-p270:32:32-p271:32:32-p272:64:64-i64:64-i128:128-f80:128-n8:16:32:64-S128"
target triple = "x86_64-pc-linux-gnu"

%struct.XKeyEvent = type { i32, i64, i32, ptr, i64, i64, i64, i64, i32, i32, i32, i32, i32, i32, i32 }
%struct.KeyRepeatCheckData = type { ptr, i8 }

; Function Attrs: nounwind uwtable
define internal i32 @X11_KeyRepeatCheckIfEvent(ptr noundef %0, ptr noundef %1, ptr noundef %2) #0 {
  %4 = alloca ptr, align 8
  %5 = alloca ptr, align 8
  %6 = alloca ptr, align 8
  %7 = alloca ptr, align 8
  store ptr %0, ptr %4, align 8
  store ptr %1, ptr %5, align 8
  store ptr %2, ptr %6, align 8
  call void @llvm.lifetime.start.p0(i64 8, ptr %7) #7
  %8 = load ptr, ptr %6, align 8
  store ptr %8, ptr %7, align 8
  %9 = load ptr, ptr %5, align 8
  %10 = load i32, ptr %9, align 8
  %11 = icmp eq i32 %10, 2
  br i1 %11, label %12, label %36

12:                                               ; preds = %3
  %13 = load ptr, ptr %5, align 8
  %14 = getelementptr inbounds nuw %struct.XKeyEvent, ptr %13, i32 0, i32 13
  %15 = load i32, ptr %14, align 4
  %16 = load ptr, ptr %7, align 8
  %17 = getelementptr inbounds nuw %struct.KeyRepeatCheckData, ptr %16, i32 0, i32 0
  %18 = load ptr, ptr %17, align 8
  %19 = getelementptr inbounds nuw %struct.XKeyEvent, ptr %18, i32 0, i32 13
  %20 = load i32, ptr %19, align 4
  %21 = icmp eq i32 %15, %20
  br i1 %21, label %22, label %36

22:                                               ; preds = %12
  %23 = load ptr, ptr %5, align 8
  %24 = getelementptr inbounds nuw %struct.XKeyEvent, ptr %23, i32 0, i32 7
  %25 = load i64, ptr %24, align 8
  %26 = load ptr, ptr %7, align 8
  %27 = getelementptr inbounds nuw %struct.KeyRepeatCheckData, ptr %26, i32 0, i32 0
  %28 = load ptr, ptr %27, align 8
  %29 = getelementptr inbounds nuw %struct.XKeyEvent, ptr %28, i32 0, i32 7
  %30 = load i64, ptr %29, align 8
  %31 = sub i64 %25, %30
  %32 = icmp ult i64 %31, 2
  br i1 %32, label %33, label %36

33:                                               ; preds = %22
  %34 = load ptr, ptr %7, align 8
  %35 = getelementptr inbounds nuw %struct.KeyRepeatCheckData, ptr %34, i32 0, i32 1
  store i8 1, ptr %35, align 8
  br label %36

36:                                               ; preds = %33, %22, %12, %3
  call void @llvm.lifetime.end.p0(i64 8, ptr %7) #7
  ret i32 0
}