; Function Attrs: mustprogress nofree norecurse nosync nounwind willreturn memory(read, argmem: readwrite, inaccessiblemem: none) uwtable
define internal noundef i32 @X11_KeyRepeatCheckIfEvent(ptr readnone captures(none) %0, ptr noundef readonly captures(none) %1, ptr noundef captures(none) %2) #8 {
  %4 = load i32, ptr %1, align 8
  %5 = icmp eq i32 %4, 2
  br i1 %5, label %6, label %22

6:                                                ; preds = %3
  %7 = getelementptr inbounds nuw i8, ptr %1, i64 84
  %8 = load i32, ptr %7, align 4
  %9 = load ptr, ptr %2, align 8
  %10 = getelementptr inbounds nuw i8, ptr %9, i64 84
  %11 = load i32, ptr %10, align 4
  %12 = icmp eq i32 %8, %11
  br i1 %12, label %13, label %22

13:                                               ; preds = %6
  %14 = getelementptr inbounds nuw i8, ptr %1, i64 56
  %15 = load i64, ptr %14, align 8
  %16 = getelementptr inbounds nuw i8, ptr %9, i64 56
  %17 = load i64, ptr %16, align 8
  %18 = sub i64 %15, %17
  %19 = icmp ult i64 %18, 2
  br i1 %19, label %20, label %22

20:                                               ; preds = %13
  %21 = getelementptr inbounds nuw i8, ptr %2, i64 8
  store i8 1, ptr %21, align 8
  br label %22

22:                                               ; preds = %20, %13, %6, %3
  ret i32 0
}